target datalayout = "e-m:e-p270:32:32-p271:32:32-p272:64:64-i64:64-i128:128-f80:128-n8:16:32:64-S128"
target triple = "x86_64-pc-linux-gnu"

%struct.quic_pkt_hdr_ptrs_st = type { ptr, ptr, i64, ptr }

; Function Attrs: nounwind uwtable
define i32 @ossl_quic_hdr_protector_decrypt_fields(ptr noundef %0, ptr noundef %1, i64 noundef %2, ptr noundef %3, ptr noundef %4) #0 {
  %6 = alloca i32, align 4
  %7 = alloca ptr, align 8
  %8 = alloca ptr, align 8
  %9 = alloca i64, align 8
  %10 = alloca ptr, align 8
  %11 = alloca ptr, align 8
  %12 = alloca [5 x i8], align 1
  %13 = alloca i8, align 1
  %14 = alloca i8, align 1
  %15 = alloca i32, align 4
  store ptr %0, ptr %7, align 8, !tbaa !3
  store ptr %1, ptr %8, align 8, !tbaa !10
  store i64 %2, ptr %9, align 8, !tbaa !14
  store ptr %3, ptr %10, align 8, !tbaa !10
  store ptr %4, ptr %11, align 8, !tbaa !10
  call void @llvm.lifetime.start.p0(i64 5, ptr %12) #7
  call void @llvm.lifetime.start.p0(i64 1, ptr %13) #7
  call void @llvm.lifetime.start.p0(i64 1, ptr %14) #7
  %16 = load ptr, ptr %7, align 8, !tbaa !3
  %17 = load ptr, ptr %8, align 8, !tbaa !10
  %18 = load i64, ptr %9, align 8, !tbaa !14
  %19 = getelementptr inbounds [5 x i8], ptr %12, i64 0, i64 0
  %20 = call i32 @hdr_generate_mask(ptr noundef %16, ptr noundef %17, i64 noundef %18, ptr noundef %19)
  %21 = icmp ne i32 %20, 0
  br i1 %21, label %23, label %22

22:                                               ; preds = %5
  store i32 0, ptr %6, align 4
  store i32 1, ptr %15, align 4
  br label %71

23:                                               ; preds = %5
  %24 = getelementptr inbounds [5 x i8], ptr %12, i64 0, i64 0
  %25 = load i8, ptr %24, align 1, !tbaa !31
  %26 = zext i8 %25 to i32
  %27 = load ptr, ptr %10, align 8, !tbaa !10
  %28 = load i8, ptr %27, align 1, !tbaa !31
  %29 = zext i8 %28 to i32
  %30 = and i32 %29, 128
  %31 = icmp ne i32 %30, 0
  %32 = select i1 %31, i32 15, i32 31
  %33 = and i32 %26, %32
  %34 = load ptr, ptr %10, align 8, !tbaa !10
  %35 = load i8, ptr %34, align 1, !tbaa !31
  %36 = zext i8 %35 to i32
  %37 = xor i32 %36, %33
  %38 = trunc i32 %37 to i8
  store i8 %38, ptr %34, align 1, !tbaa !31
  %39 = load ptr, ptr %10, align 8, !tbaa !10
  %40 = load i8, ptr %39, align 1, !tbaa !31
  %41 = zext i8 %40 to i32
  %42 = and i32 %41, 3
  %43 = add nsw i32 %42, 1
  %44 = trunc i32 %43 to i8
  store i8 %44, ptr %13, align 1, !tbaa !31
  store i8 0, ptr %14, align 1, !tbaa !31
  br label %45

45:                                               ; preds = %67, %23
  %46 = load i8, ptr %14, align 1, !tbaa !31
  %47 = zext i8 %46 to i32
  %48 = load i8, ptr %13, align 1, !tbaa !31
  %49 = zext i8 %48 to i32
  %50 = icmp slt i32 %47, %49
  br i1 %50, label %51, label %70

51:                                               ; preds = %45
  %52 = load i8, ptr %14, align 1, !tbaa !31
  %53 = zext i8 %52 to i32
  %54 = add nsw i32 %53, 1
  %55 = sext i32 %54 to i64
  %56 = getelementptr inbounds [5 x i8], ptr %12, i64 0, i64 %55
  %57 = load i8, ptr %56, align 1, !tbaa !31
  %58 = zext i8 %57 to i32
  %59 = load ptr, ptr %11, align 8, !tbaa !10
  %60 = load i8, ptr %14, align 1, !tbaa !31
  %61 = zext i8 %60 to i64
  %62 = getelementptr inbounds nuw i8, ptr %59, i64 %61
  %63 = load i8, ptr %62, align 1, !tbaa !31
  %64 = zext i8 %63 to i32
  %65 = xor i32 %64, %58
  %66 = trunc i32 %65 to i8
  store i8 %66, ptr %62, align 1, !tbaa !31
  br label %67

67:                                               ; preds = %51
  %68 = load i8, ptr %14, align 1, !tbaa !31
  %69 = add i8 %68, 1
  store i8 %69, ptr %14, align 1, !tbaa !31
  br label %45, !llvm.loop !32

70:                                               ; preds = %45
  store i32 1, ptr %6, align 4
  store i32 1, ptr %15, align 4
  br label %71

71:                                               ; preds = %70, %22
  call void @llvm.lifetime.end.p0(i64 1, ptr %14) #7
  call void @llvm.lifetime.end.p0(i64 1, ptr %13) #7
  call void @llvm.lifetime.end.p0(i64 5, ptr %12) #7
  %72 = load i32, ptr %6, align 4
  ret i32 %72
}

; Function Attrs: nounwind uwtable
define i32 @ossl_quic_hdr_protector_decrypt(ptr noundef %0, ptr noundef %1) #0 {
  %3 = alloca ptr, align 8
  %4 = alloca ptr, align 8
  store ptr %0, ptr %3, align 8, !tbaa !3
  store ptr %1, ptr %4, align 8, !tbaa !24
  %5 = load ptr, ptr %3, align 8, !tbaa !3
  %6 = load ptr, ptr %4, align 8, !tbaa !24
  %7 = getelementptr inbounds nuw %struct.quic_pkt_hdr_ptrs_st, ptr %6, i32 0, i32 1
  %8 = load ptr, ptr %7, align 8, !tbaa !26
  %9 = load ptr, ptr %4, align 8, !tbaa !24
  %10 = getelementptr inbounds nuw %struct.quic_pkt_hdr_ptrs_st, ptr %9, i32 0, i32 2
  %11 = load i64, ptr %10, align 8, !tbaa !28
  %12 = load ptr, ptr %4, align 8, !tbaa !24
  %13 = getelementptr inbounds nuw %struct.quic_pkt_hdr_ptrs_st, ptr %12, i32 0, i32 0
  %14 = load ptr, ptr %13, align 8, !tbaa !29
  %15 = load ptr, ptr %4, align 8, !tbaa !24
  %16 = getelementptr inbounds nuw %struct.quic_pkt_hdr_ptrs_st, ptr %15, i32 0, i32 3
  %17 = load ptr, ptr %16, align 8, !tbaa !30
  %18 = call i32 @ossl_quic_hdr_protector_decrypt_fields(ptr noundef %5, ptr noundef %8, i64 noundef %11, ptr noundef %14, ptr noundef %17)
  ret i32 %18
}