; Function Attrs: nounwind uwtable
define range(i32 0, 2) i32 @ossl_quic_hdr_protector_decrypt(ptr noundef readonly captures(none) %0, ptr noundef readonly captures(none) %1) local_unnamed_addr #0 {
  %3 = alloca [5 x i8], align 1
  %4 = getelementptr inbounds nuw i8, ptr %1, i64 8
  %5 = load ptr, ptr %4, align 8, !tbaa !17
  %6 = getelementptr inbounds nuw i8, ptr %1, i64 16
  %7 = load i64, ptr %6, align 8, !tbaa !20
  %8 = load ptr, ptr %1, align 8, !tbaa !21
  %9 = getelementptr inbounds nuw i8, ptr %1, i64 24
  %10 = load ptr, ptr %9, align 8, !tbaa !22
  call void @llvm.lifetime.start.p0(i64 5, ptr nonnull %3) #10
  %11 = call fastcc i32 @hdr_generate_mask(ptr noundef readonly %0, ptr noundef %5, i64 noundef %7, ptr noundef %3)
  %.not.i = icmp eq i32 %11, 0
  br i1 %.not.i, label %ossl_quic_hdr_protector_decrypt_fields.exit, label %12

12:                                               ; preds = %2
  %13 = load i8, ptr %3, align 1, !tbaa !23
  %14 = load i8, ptr %8, align 1, !tbaa !23
  %.not14.i = icmp sgt i8 %14, -1
  %15 = select i1 %.not14.i, i8 31, i8 15
  %16 = and i8 %15, %13
  %17 = xor i8 %16, %14
  store i8 %17, ptr %8, align 1, !tbaa !23
  %18 = and i8 %17, 3
  %19 = add nuw nsw i8 %18, 1
  %wide.trip.count.i = zext nneg i8 %19 to i64
  br label %20

20:                                               ; preds = %20, %12
  %indvars.iv.i = phi i64 [ 0, %12 ], [ %21, %20 ]
  %21 = add nuw nsw i64 %indvars.iv.i, 1
  %22 = getelementptr inbounds nuw [5 x i8], ptr %3, i64 0, i64 %21
  %23 = load i8, ptr %22, align 1, !tbaa !23
  %24 = getelementptr inbounds nuw i8, ptr %10, i64 %indvars.iv.i
  %25 = load i8, ptr %24, align 1, !tbaa !23
  %26 = xor i8 %25, %23
  store i8 %26, ptr %24, align 1, !tbaa !23
  %exitcond.i = icmp eq i64 %21, %wide.trip.count.i
  br i1 %exitcond.i, label %ossl_quic_hdr_protector_decrypt_fields.exit, label %20, !llvm.loop !24

ossl_quic_hdr_protector_decrypt_fields.exit:      ; preds = %20, %2
  %.012.i = phi i32 [ 0, %2 ], [ 1, %20 ]
  call void @llvm.lifetime.end.p0(i64 5, ptr nonnull %3) #10
  ret i32 %.012.i
}